; Function Attrs: nounwind uwtable
define i32 @Abc_NodeStrashToGia(ptr noundef %0, ptr noundef %1) local_unnamed_addr #0 {
  %3 = load ptr, ptr %1, align 8
  %4 = getelementptr inbounds nuw i8, ptr %3, i64 256
  %5 = load ptr, ptr %4, align 8
  %6 = getelementptr inbounds nuw i8, ptr %1, i64 56
  %7 = load ptr, ptr %6, align 8
  %8 = tail call i32 @Abc_NodeIsConst(ptr noundef nonnull %1) #13
  %.not = icmp eq i32 %8, 0
  %9 = ptrtoint ptr %7 to i64
  br i1 %.not, label %10, label %._crit_edge

10:                                               ; preds = %2
  %11 = and i64 %9, -2
  %12 = inttoptr i64 %11 to ptr
  %13 = getelementptr i8, ptr %5, i64 24
  %.val = load ptr, ptr %13, align 8
  %14 = icmp eq ptr %.val, %12
  br i1 %14, label %._crit_edge, label %.preheader

.preheader:                                       ; preds = %10
  %15 = getelementptr i8, ptr %1, i64 28
  %.val2833 = load i32, ptr %15, align 4
  %16 = icmp sgt i32 %.val2833, 0
  br i1 %16, label %.lr.ph, label %.critedge2

._crit_edge:                                      ; preds = %2, %10
  %17 = trunc i64 %9 to i32
  %18 = and i32 %17, 1
  %19 = xor i32 %18, 1
  br label %38

.lr.ph:                                           ; preds = %.preheader
  %20 = getelementptr i8, ptr %1, i64 32
  br label %.critedge

.critedge:                                        ; preds = %.lr.ph, %.critedge
  %indvars.iv = phi i64 [ 0, %.lr.ph ], [ %indvars.iv.next, %.critedge ]
  %.val31 = load ptr, ptr %1, align 8
  %.val32 = load ptr, ptr %20, align 8
  %21 = getelementptr i8, ptr %.val31, i64 32
  %.val31.val = load ptr, ptr %21, align 8
  %22 = getelementptr i8, ptr %.val31.val, i64 8
  %.val31.val.val = load ptr, ptr %22, align 8
  %23 = getelementptr inbounds nuw i32, ptr %.val32, i64 %indvars.iv
  %24 = load i32, ptr %23, align 4
  %25 = sext i32 %24 to i64
  %26 = getelementptr inbounds ptr, ptr %.val31.val.val, i64 %25
  %27 = load ptr, ptr %26, align 8
  %28 = getelementptr inbounds nuw i8, ptr %27, i64 64
  %29 = load i32, ptr %28, align 8
  %30 = trunc nuw nsw i64 %indvars.iv to i32
  %31 = tail call ptr @Hop_IthVar(ptr noundef %5, i32 noundef %30) #13
  store i32 %29, ptr %31, align 8
  %indvars.iv.next = add nuw nsw i64 %indvars.iv, 1
  %.val28 = load i32, ptr %15, align 4
  %32 = sext i32 %.val28 to i64
  %33 = icmp slt i64 %indvars.iv.next, %32
  br i1 %33, label %.critedge, label %.critedge2, !llvm.loop !4

.critedge2:                                       ; preds = %.critedge, %.preheader
  tail call void @Abc_NodeStrashToGia_rec(ptr noundef %0, ptr noundef %12)
  tail call void @Hop_ConeUnmark_rec(ptr noundef %12) #13
  %34 = load i32, ptr %12, align 8
  %35 = trunc i64 %9 to i32
  %36 = and i32 %35, 1
  %37 = xor i32 %34, %36
  br label %38

38:                                               ; preds = %.critedge2, %._crit_edge
  %.026 = phi i32 [ %19, %._crit_edge ], [ %37, %.critedge2 ]
  ret i32 %.026
}